(lp0
S'360_0.jpg'
p1
aS'360_1.jpg'
p2
aS'360_2.jpg'
p3
aS'360_3.jpg'
p4
aS'360_4.jpg'
p5
aS'360_5.jpg'
p6
aS'360_6.jpg'
p7
aS'360_7.jpg'
p8
aS'360_8.jpg'
p9
aS'360_9.jpg'
p10
aS'540_0.jpg'
p11
aS'540_1.jpg'
p12
aS'540_2.jpg'
p13
aS'540_3.jpg'
p14
aS'540_4.jpg'
p15
aS'540_5.jpg'
p16
aS'540_6.jpg'
p17
aS'540_7.jpg'
p18
aS'540_8.jpg'
p19
aS'540_9.jpg'
p20
aS'720_0.jpg'
p21
aS'720_1.jpg'
p22
aS'720_2.jpg'
p23
aS'720_3.jpg'
p24
aS'720_4.jpg'
p25
aS'720_5.jpg'
p26
aS'720_6.jpg'
p27
aS'720_7.jpg'
p28
aS'720_8.jpg'
p29
aS'720_9.jpg'
p30
aS'900_0.jpg'
p31
aS'900_1.jpg'
p32
aS'900_2.jpg'
p33
aS'900_3.jpg'
p34
aS'900_4.jpg'
p35
aS'900_5.jpg'
p36
aS'900_6.jpg'
p37
aS'900_7.jpg'
p38
aS'900_8.jpg'
p39
aS'900_9.jpg'
p40
aS'1080_0.jpg'
p41
aS'1080_1.jpg'
p42
aS'1080_2.jpg'
p43
aS'1080_3.jpg'
p44
aS'1080_4.jpg'
p45
aS'1080_5.jpg'
p46
aS'1080_6.jpg'
p47
aS'1080_7.jpg'
p48
aS'1080_8.jpg'
p49
aS'1080_9.jpg'
p50
a.